; Function Attrs: mustprogress uwtable
define dso_local void @_ZN37btSequentialImpulseConstraintSolverMt23internalWriteBackJointsEiiRK19btContactSolverInfo(ptr noundef nonnull align 8 dereferenceable(920) %0, i32 noundef %1, i32 noundef %2, ptr noundef nonnull align 4 dereferenceable(128) %3) local_unnamed_addr #0 align 2 personality ptr @__gxx_personality_v0 {
  %5 = alloca %class.CProfileSample, align 1
  call void @llvm.lifetime.start.p0(i64 1, ptr nonnull %5) #16
  call void @_ZN14CProfileSampleC1EPKc(ptr noundef nonnull align 1 dereferenceable(1) %5, ptr noundef nonnull @.str.21)
  invoke void @_ZN35btSequentialImpulseConstraintSolver15writeBackJointsEiiRK19btContactSolverInfo(ptr noundef nonnull align 8 dereferenceable(408) %0, i32 noundef %1, i32 noundef %2, ptr noundef nonnull align 4 dereferenceable(128) %3)
          to label %6 unwind label %7

6:                                                ; preds = %4
  call void @_ZN14CProfileSampleD1Ev(ptr noundef nonnull align 1 dereferenceable(1) %5) #16
  call void @llvm.lifetime.end.p0(i64 1, ptr nonnull %5) #16
  ret void

7:                                                ; preds = %4
  %8 = landingpad { ptr, i32 }
          cleanup
  call void @_ZN14CProfileSampleD1Ev(ptr noundef nonnull align 1 dereferenceable(1) %5) #16
  call void @llvm.lifetime.end.p0(i64 1, ptr nonnull %5) #16
  resume { ptr, i32 } %8
}